; Function Attrs: nounwind sspstrong uwtable
define internal void @machine_set_usb(ptr noundef %obj, i1 noundef zeroext %value, ptr readnone captures(none) %errp) #0 {
entry:
  %frombool = zext i1 %value to i8
  %call.i = tail call ptr @object_dynamic_cast_assert(ptr noundef %obj, ptr noundef nonnull @.str.225, ptr noundef nonnull @.str.226, i32 noundef 23, ptr noundef nonnull @__func__.MACHINE) #16
  %usb = getelementptr inbounds nuw i8, ptr %call.i, i64 82
  store i8 %frombool, ptr %usb, align 2
  %lnot = xor i1 %value, true
  %usb_disabled = getelementptr inbounds nuw i8, ptr %call.i, i64 83
  %frombool3 = zext i1 %lnot to i8
  store i8 %frombool3, ptr %usb_disabled, align 1
  ret void
}